(dp0
Vengine
p1
S'pdflatex'
p2
sVpackages
p3
c__builtin__
set
p4
((lp5
Vindentfirst
p6
aVsubfigure
p7
aVpbox
p8
aVamsbsy
p9
aVurl
p10
aVbm
p11
aVmultirow
p12
aVfloat
p13
aVdsfont
p14
aVframed
p15
aVgeometry
p16
aVcolor
p17
aVamsthm
p18
aVenumerate
p19
aVamsfonts
p20
aVgraphicx
p21
aVlatexsym
p22
aVamssymb
p23
atp24
Rp25
sVfiles_with_guttermarks
p26
g4
((lp27
S'Quiz1.tex'
p28
atp29
Rp30
sVsynctex
p31
I01
s.